; Function Attrs: nounwind uwtable
define i32 @dt_bauhaus_combobox_get_from_value(ptr noundef %0, i32 noundef %1) local_unnamed_addr #0 {
  %3 = load atomic i64, ptr @dt_bh_get_type.static_g_define_type_id seq_cst, align 8
  %.not.i.i.i = icmp eq i64 %3, 0
  br i1 %.not.i.i.i, label %4, label %DT_BAUHAUS_WIDGET.exit.i

4:                                                ; preds = %2
  %5 = tail call i32 @g_once_init_enter(ptr noundef nonnull @dt_bh_get_type.static_g_define_type_id) #19
  %.not4.i.i.i = icmp eq i32 %5, 0
  br i1 %.not4.i.i.i, label %DT_BAUHAUS_WIDGET.exit.i, label %6

6:                                                ; preds = %4
  %7 = tail call fastcc i64 @dt_bh_get_type_once()
  tail call void @g_once_init_leave(ptr noundef nonnull @dt_bh_get_type.static_g_define_type_id, i64 noundef %7) #19
  br label %DT_BAUHAUS_WIDGET.exit.i

DT_BAUHAUS_WIDGET.exit.i:                         ; preds = %6, %4, %2
  %8 = load i64, ptr @dt_bh_get_type.static_g_define_type_id, align 8, !tbaa !6
  %9 = tail call ptr @g_type_check_instance_cast(ptr noundef %0, i64 noundef %8) #19
  %10 = getelementptr inbounds nuw i8, ptr %9, i64 40
  %11 = load i32, ptr %10, align 8, !tbaa !105
  %.not.i = icmp eq i32 %11, 2
  br i1 %.not.i, label %12, label %.critedge

12:                                               ; preds = %DT_BAUHAUS_WIDGET.exit.i
  %13 = getelementptr inbounds nuw i8, ptr %9, i64 408
  %14 = load i32, ptr %13, align 8, !tbaa !137
  %15 = getelementptr inbounds nuw i8, ptr %9, i64 440
  %16 = load ptr, ptr %15, align 8, !tbaa !128
  %17 = getelementptr inbounds nuw i8, ptr %16, i64 8
  %18 = load i32, ptr %17, align 8, !tbaa !131
  %.not8.i = icmp ult i32 %14, %18
  br i1 %.not8.i, label %.lr.ph, label %19

19:                                               ; preds = %12
  store i32 -1, ptr %13, align 8, !tbaa !137
  br label %.lr.ph

.lr.ph:                                           ; preds = %19, %12
  %20 = getelementptr inbounds nuw i8, ptr %9, i64 440
  %21 = load ptr, ptr %20, align 8, !tbaa !128
  %22 = getelementptr inbounds nuw i8, ptr %21, i64 8
  %23 = load i32, ptr %22, align 8, !tbaa !131
  %.not25 = icmp eq i32 %23, 0
  br i1 %.not25, label %.critedge, label %.lr.ph23

.lr.ph23:                                         ; preds = %.lr.ph
  %.val.val = load ptr, ptr %21, align 8, !tbaa !133
  %wide.trip.count = zext i32 %23 to i64
  br label %24

24:                                               ; preds = %.lr.ph23, %32
  %indvars.iv = phi i64 [ 0, %.lr.ph23 ], [ %indvars.iv.next, %32 ]
  %25 = getelementptr inbounds nuw ptr, ptr %.val.val, i64 %indvars.iv
  %26 = load ptr, ptr %25, align 8, !tbaa !134
  %27 = getelementptr inbounds nuw i8, ptr %26, i64 16
  %28 = load ptr, ptr %27, align 8, !tbaa !209
  %29 = ptrtoint ptr %28 to i64
  %30 = trunc i64 %29 to i32
  %31 = icmp eq i32 %1, %30
  br i1 %31, label %.critedge.loopexit.split.loop.exit30, label %32

32:                                               ; preds = %24
  %indvars.iv.next = add nuw nsw i64 %indvars.iv, 1
  %exitcond.not = icmp eq i64 %indvars.iv.next, %wide.trip.count
  br i1 %exitcond.not, label %.critedge, label %24

.critedge.loopexit.split.loop.exit30:             ; preds = %24
  %33 = trunc nuw nsw i64 %indvars.iv to i32
  br label %.critedge

.critedge:                                        ; preds = %32, %.critedge.loopexit.split.loop.exit30, %DT_BAUHAUS_WIDGET.exit.i, %.lr.ph
  %34 = phi i32 [ -1, %.lr.ph ], [ -1, %DT_BAUHAUS_WIDGET.exit.i ], [ %33, %.critedge.loopexit.split.loop.exit30 ], [ -1, %32 ]
  ret i32 %34
}